target datalayout = "e-m:e-p270:32:32-p271:32:32-p272:64:64-i64:64-i128:128-f80:128-n8:16:32:64-S128"
target triple = "x86_64-pc-linux-gnu"

%struct.b3OverlapCallback = type { ptr }
%class.CleanPairCallback.3 = type { %struct.b3OverlapCallback, i32, ptr, ptr }

@_ZTV17b3OverlapCallback = linkonce_odr dso_local unnamed_addr constant { [5 x ptr] } { [5 x ptr] [ptr null, ptr @_ZTI17b3OverlapCallback, ptr @_ZN17b3OverlapCallbackD2Ev, ptr @_ZN17b3OverlapCallbackD0Ev, ptr @__cxa_pure_virtual] }, comdat, align 8

; Function Attrs: inlinehint mustprogress nounwind uwtable
define linkonce_odr dso_local void @_ZN17b3OverlapCallbackC2Ev(ptr noundef nonnull align 8 dereferenceable(8) %0) unnamed_addr #1 comdat align 2 {
  %2 = alloca ptr, align 8
  store ptr %0, ptr %2, align 8, !tbaa !63
  %3 = load ptr, ptr %2, align 8
  store ptr getelementptr inbounds inrange(-16, 24) ({ [5 x ptr] }, ptr @_ZTV17b3OverlapCallback, i32 0, i32 0, i32 2), ptr %3, align 8, !tbaa !9
  ret void
}

; Function Attrs: mustprogress nounwind uwtable
define linkonce_odr dso_local void @_ZN17b3OverlapCallbackD2Ev(ptr noundef nonnull align 8 dereferenceable(8) %0) unnamed_addr #4 comdat align 2 {
  %2 = alloca ptr, align 8
  store ptr %0, ptr %2, align 8, !tbaa !63
  ret void
}

; Function Attrs: mustprogress nounwind uwtable
define internal void @_ZZN28b3SortedOverlappingPairCache19cleanProxyFromPairsEiP12b3DispatcherEN17CleanPairCallbackC2EiP22b3OverlappingPairCacheS1_(ptr noundef nonnull align 8 dereferenceable(32) %0, i32 noundef %1, ptr noundef %2, ptr noundef %3) unnamed_addr #4 align 2 {
  %5 = alloca ptr, align 8
  %6 = alloca i32, align 4
  %7 = alloca ptr, align 8
  %8 = alloca ptr, align 8
  store ptr %0, ptr %5, align 8, !tbaa !83
  store i32 %1, ptr %6, align 4, !tbaa !23
  store ptr %2, ptr %7, align 8, !tbaa !24
  store ptr %3, ptr %8, align 8, !tbaa !40
  %9 = load ptr, ptr %5, align 8
  call void @_ZN17b3OverlapCallbackC2Ev(ptr noundef nonnull align 8 dereferenceable(8) %9) #10
  store ptr getelementptr inbounds inrange(-16, 24) ({ [5 x ptr] }, ptr @_ZTVZN28b3SortedOverlappingPairCache19cleanProxyFromPairsEiP12b3DispatcherE17CleanPairCallback, i32 0, i32 0, i32 2), ptr %9, align 8, !tbaa !9
  %10 = getelementptr inbounds nuw %class.CleanPairCallback.3, ptr %9, i32 0, i32 1
  %11 = load i32, ptr %6, align 4, !tbaa !23
  store i32 %11, ptr %10, align 8, !tbaa !85
  %12 = getelementptr inbounds nuw %class.CleanPairCallback.3, ptr %9, i32 0, i32 2
  %13 = load ptr, ptr %7, align 8, !tbaa !24
  store ptr %13, ptr %12, align 8, !tbaa !87
  %14 = getelementptr inbounds nuw %class.CleanPairCallback.3, ptr %9, i32 0, i32 3
  %15 = load ptr, ptr %8, align 8, !tbaa !40
  store ptr %15, ptr %14, align 8, !tbaa !88
  ret void
}

; Function Attrs: mustprogress uwtable
define dso_local void @_ZN28b3SortedOverlappingPairCache19cleanProxyFromPairsEiP12b3Dispatcher(ptr noundef nonnull align 8 dereferenceable(56) %0, i32 noundef %1, ptr noundef %2) unnamed_addr #0 align 2 personality ptr @__gxx_personality_v0 {
  %4 = alloca ptr, align 8
  %5 = alloca i32, align 4
  %6 = alloca ptr, align 8
  %7 = alloca %class.CleanPairCallback.3, align 8
  %8 = alloca ptr, align 8
  %9 = alloca i32, align 4
  store ptr %0, ptr %4, align 8, !tbaa !72
  store i32 %1, ptr %5, align 4, !tbaa !23
  store ptr %2, ptr %6, align 8, !tbaa !40
  %10 = load ptr, ptr %4, align 8
  call void @llvm.lifetime.start.p0(i64 32, ptr %7) #10
  %11 = load i32, ptr %5, align 4, !tbaa !23
  %12 = load ptr, ptr %6, align 8, !tbaa !40
  call void @_ZZN28b3SortedOverlappingPairCache19cleanProxyFromPairsEiP12b3DispatcherEN17CleanPairCallbackC2EiP22b3OverlappingPairCacheS1_(ptr noundef nonnull align 8 dereferenceable(32) %7, i32 noundef %11, ptr noundef %10, ptr noundef %12)
  %13 = load ptr, ptr %6, align 8, !tbaa !40
  %14 = load ptr, ptr %10, align 8, !tbaa !9
  %15 = getelementptr inbounds ptr, ptr %14, i64 9
  %16 = load ptr, ptr %15, align 8
  invoke void %16(ptr noundef nonnull align 8 dereferenceable(56) %10, ptr noundef %7, ptr noundef %13)
          to label %17 unwind label %18

17:                                               ; preds = %3
  call void @_ZN17b3OverlapCallbackD2Ev(ptr noundef nonnull align 8 dereferenceable(32) %7) #10
  call void @llvm.lifetime.end.p0(i64 32, ptr %7) #10
  ret void

18:                                               ; preds = %3
  %19 = landingpad { ptr, i32 }
          cleanup
  %20 = extractvalue { ptr, i32 } %19, 0
  store ptr %20, ptr %8, align 8
  %21 = extractvalue { ptr, i32 } %19, 1
  store i32 %21, ptr %9, align 4
  call void @_ZN17b3OverlapCallbackD2Ev(ptr noundef nonnull align 8 dereferenceable(32) %7) #10
  call void @llvm.lifetime.end.p0(i64 32, ptr %7) #10
  br label %22

22:                                               ; preds = %18
  %23 = load ptr, ptr %8, align 8
  %24 = load i32, ptr %9, align 4
  %25 = insertvalue { ptr, i32 } poison, ptr %23, 0
  %26 = insertvalue { ptr, i32 } %25, i32 %24, 1
  resume { ptr, i32 } %26
}